target datalayout = "e-m:e-p270:32:32-p271:32:32-p272:64:64-i64:64-i128:128-f80:128-n8:16:32:64-S128"
target triple = "x86_64-pc-linux-gnu"

%struct._lv_draw_glyph_dsc_t = type { ptr, i32, ptr, ptr, ptr, %struct.lv_color_t, i8, i32, %struct.lv_point_t, ptr }
%struct.lv_color_t = type { i8, i8, i8 }
%struct.lv_point_t = type { i32, i32 }
%struct.lv_draw_dsc_base_t = type { ptr, i32, i32, i32, ptr, i64, ptr }
%struct.lv_area_t = type { i32, i32, i32, i32 }
%struct.lv_draw_border_dsc_t = type { %struct.lv_draw_dsc_base_t, i32, %struct.lv_color_t, i32, i8, i8 }
%struct._lv_draw_sw_blend_dsc_t = type { ptr, ptr, i32, i32, ptr, i8, %struct.lv_color_t, ptr, i32, ptr, i32, i32 }
%struct._lv_draw_image_dsc_t = type { %struct.lv_draw_dsc_base_t, ptr, %struct.lv_image_header_t, i32, i32, i32, i32, i32, %struct.lv_point_t, %struct.lv_color_t, i8, i8, i8, ptr, %struct.lv_area_t, i32, ptr }
%struct.lv_image_header_t = type <{ i64, i32 }>
%struct._lv_draw_buf_t = type { %struct.lv_image_header_t, i32, ptr, ptr, ptr }
%struct.lv_font_glyph_dsc_t = type { ptr, i16, i16, i16, i16, i16, i32, i8, %union.anon, ptr }
%union.anon = type { ptr }

; Function Attrs: inlinehint nounwind uwtable
define internal void @lv_memzero(ptr noundef %0, i64 noundef %1) #4 {
  %3 = alloca ptr, align 8
  %4 = alloca i64, align 8
  store ptr %0, ptr %3, align 8, !tbaa !8
  store i64 %1, ptr %4, align 8, !tbaa !77
  %5 = load ptr, ptr %3, align 8, !tbaa !8
  %6 = load i64, ptr %4, align 8, !tbaa !77
  call void @lv_memset(ptr noundef %5, i8 noundef zeroext 0, i64 noundef %6)
  ret void
}

; Function Attrs: nounwind uwtable
define internal void @draw_letter_cb(ptr noundef %0, ptr noundef %1, ptr noundef %2, ptr noundef %3) #0 {
  %5 = alloca ptr, align 8
  %6 = alloca ptr, align 8
  %7 = alloca ptr, align 8
  %8 = alloca ptr, align 8
  %9 = alloca %struct.lv_draw_border_dsc_t, align 8
  %10 = alloca %struct.lv_area_t, align 4
  %11 = alloca %struct._lv_draw_sw_blend_dsc_t, align 8
  %12 = alloca ptr, align 8
  %13 = alloca %struct._lv_draw_image_dsc_t, align 8
  %14 = alloca %struct.lv_point_t, align 4
  store ptr %0, ptr %5, align 8, !tbaa !3
  store ptr %1, ptr %6, align 8, !tbaa !37
  store ptr %2, ptr %7, align 8, !tbaa !8
  store ptr %3, ptr %8, align 8, !tbaa !8
  %15 = load ptr, ptr %6, align 8, !tbaa !37
  %16 = icmp ne ptr %15, null
  br i1 %16, label %17, label %152

17:                                               ; preds = %4
  %18 = load ptr, ptr %6, align 8, !tbaa !37
  %19 = getelementptr inbounds nuw %struct._lv_draw_glyph_dsc_t, ptr %18, i32 0, i32 1
  %20 = load i32, ptr %19, align 8, !tbaa !39
  switch i32 %20, label %150 [
    i32 0, label %21
    i32 1, label %40
    i32 2, label %40
    i32 3, label %40
    i32 4, label %40
    i32 8, label %40
    i32 17, label %40
    i32 18, label %40
    i32 20, label %40
    i32 24, label %40
    i32 25, label %40
  ]

21:                                               ; preds = %17
  %22 = load ptr, ptr %6, align 8, !tbaa !37
  %23 = getelementptr inbounds nuw %struct._lv_draw_glyph_dsc_t, ptr %22, i32 0, i32 3
  %24 = load ptr, ptr %23, align 8, !tbaa !22
  %25 = icmp eq ptr %24, null
  br i1 %25, label %26, label %27

26:                                               ; preds = %21
  br label %151

27:                                               ; preds = %21
  call void @llvm.lifetime.start.p0(i64 64, ptr %9) #5
  call void @lv_draw_border_dsc_init(ptr noundef %9)
  %28 = load ptr, ptr %6, align 8, !tbaa !37
  %29 = getelementptr inbounds nuw %struct._lv_draw_glyph_dsc_t, ptr %28, i32 0, i32 6
  %30 = load i8, ptr %29, align 1, !tbaa !19
  %31 = getelementptr inbounds nuw %struct.lv_draw_border_dsc_t, ptr %9, i32 0, i32 4
  store i8 %30, ptr %31, align 4, !tbaa !40
  %32 = getelementptr inbounds nuw %struct.lv_draw_border_dsc_t, ptr %9, i32 0, i32 2
  %33 = load ptr, ptr %6, align 8, !tbaa !37
  %34 = getelementptr inbounds nuw %struct._lv_draw_glyph_dsc_t, ptr %33, i32 0, i32 5
  call void @llvm.memcpy.p0.p0.i64(ptr align 4 %32, ptr align 8 %34, i64 3, i1 false), !tbaa.struct !23
  %35 = getelementptr inbounds nuw %struct.lv_draw_border_dsc_t, ptr %9, i32 0, i32 3
  store i32 1, ptr %35, align 8, !tbaa !42
  %36 = load ptr, ptr %5, align 8, !tbaa !3
  %37 = load ptr, ptr %6, align 8, !tbaa !37
  %38 = getelementptr inbounds nuw %struct._lv_draw_glyph_dsc_t, ptr %37, i32 0, i32 3
  %39 = load ptr, ptr %38, align 8, !tbaa !22
  call void @lv_draw_sw_border(ptr noundef %36, ptr noundef %9, ptr noundef %39)
  call void @llvm.lifetime.end.p0(i64 64, ptr %9) #5
  br label %151

40:                                               ; preds = %17, %17, %17, %17, %17, %17, %17, %17, %17, %17
  %41 = load ptr, ptr %6, align 8, !tbaa !37
  %42 = getelementptr inbounds nuw %struct._lv_draw_glyph_dsc_t, ptr %41, i32 0, i32 7
  %43 = load i32, ptr %42, align 4, !tbaa !26
  %44 = srem i32 %43, 3600
  %45 = icmp eq i32 %44, 0
  br i1 %45, label %46, label %98

46:                                               ; preds = %40
  %47 = load ptr, ptr %6, align 8, !tbaa !37
  %48 = getelementptr inbounds nuw %struct._lv_draw_glyph_dsc_t, ptr %47, i32 0, i32 1
  %49 = load i32, ptr %48, align 8, !tbaa !39
  %50 = icmp ne i32 %49, 25
  br i1 %50, label %51, label %98

51:                                               ; preds = %46
  %52 = load ptr, ptr %6, align 8, !tbaa !37
  %53 = getelementptr inbounds nuw %struct._lv_draw_glyph_dsc_t, ptr %52, i32 0, i32 4
  %54 = load ptr, ptr %53, align 8, !tbaa !43
  %55 = load ptr, ptr %6, align 8, !tbaa !37
  %56 = getelementptr inbounds nuw %struct._lv_draw_glyph_dsc_t, ptr %55, i32 0, i32 9
  %57 = load ptr, ptr %56, align 8, !tbaa !36
  %58 = call ptr @lv_font_get_glyph_bitmap(ptr noundef %54, ptr noundef %57)
  %59 = load ptr, ptr %6, align 8, !tbaa !37
  %60 = getelementptr inbounds nuw %struct._lv_draw_glyph_dsc_t, ptr %59, i32 0, i32 0
  store ptr %58, ptr %60, align 8, !tbaa !44
  call void @llvm.lifetime.start.p0(i64 16, ptr %10) #5
  %61 = load ptr, ptr %6, align 8, !tbaa !37
  %62 = getelementptr inbounds nuw %struct._lv_draw_glyph_dsc_t, ptr %61, i32 0, i32 2
  %63 = load ptr, ptr %62, align 8, !tbaa !45
  call void @llvm.memcpy.p0.p0.i64(ptr align 4 %10, ptr align 4 %63, i64 16, i1 false), !tbaa.struct !46
  %64 = getelementptr inbounds nuw %struct.lv_area_t, ptr %10, i32 0, i32 0
  %65 = load i32, ptr %64, align 4, !tbaa !29
  %66 = call i32 @lv_area_get_width(ptr noundef %10)
  %67 = call i32 @lv_draw_buf_width_to_stride(i32 noundef %66, i32 noundef 14)
  %68 = add i32 %65, %67
  %69 = sub i32 %68, 1
  %70 = getelementptr inbounds nuw %struct.lv_area_t, ptr %10, i32 0, i32 2
  store i32 %69, ptr %70, align 4, !tbaa !47
  call void @llvm.lifetime.start.p0(i64 72, ptr %11) #5
  call void @lv_memzero(ptr noundef %11, i64 noundef 72)
  %71 = getelementptr inbounds nuw %struct._lv_draw_sw_blend_dsc_t, ptr %11, i32 0, i32 6
  %72 = load ptr, ptr %6, align 8, !tbaa !37
  %73 = getelementptr inbounds nuw %struct._lv_draw_glyph_dsc_t, ptr %72, i32 0, i32 5
  call void @llvm.memcpy.p0.p0.i64(ptr align 1 %71, ptr align 8 %73, i64 3, i1 false), !tbaa.struct !23
  %74 = load ptr, ptr %6, align 8, !tbaa !37
  %75 = getelementptr inbounds nuw %struct._lv_draw_glyph_dsc_t, ptr %74, i32 0, i32 6
  %76 = load i8, ptr %75, align 1, !tbaa !19
  %77 = getelementptr inbounds nuw %struct._lv_draw_sw_blend_dsc_t, ptr %11, i32 0, i32 5
  store i8 %76, ptr %77, align 8, !tbaa !48
  call void @llvm.lifetime.start.p0(i64 8, ptr %12) #5
  %78 = load ptr, ptr %6, align 8, !tbaa !37
  %79 = getelementptr inbounds nuw %struct._lv_draw_glyph_dsc_t, ptr %78, i32 0, i32 0
  %80 = load ptr, ptr %79, align 8, !tbaa !44
  store ptr %80, ptr %12, align 8, !tbaa !51
  %81 = load ptr, ptr %12, align 8, !tbaa !51
  %82 = getelementptr inbounds nuw %struct._lv_draw_buf_t, ptr %81, i32 0, i32 2
  %83 = load ptr, ptr %82, align 8, !tbaa !52
  %84 = getelementptr inbounds nuw %struct._lv_draw_sw_blend_dsc_t, ptr %11, i32 0, i32 7
  store ptr %83, ptr %84, align 8, !tbaa !56
  %85 = getelementptr inbounds nuw %struct._lv_draw_sw_blend_dsc_t, ptr %11, i32 0, i32 9
  store ptr %10, ptr %85, align 8, !tbaa !57
  %86 = load ptr, ptr %12, align 8, !tbaa !51
  %87 = getelementptr inbounds nuw %struct._lv_draw_buf_t, ptr %86, i32 0, i32 0
  %88 = getelementptr inbounds nuw %struct.lv_image_header_t, ptr %87, i32 0, i32 1
  %89 = load i32, ptr %88, align 8
  %90 = and i32 %89, 65535
  %91 = getelementptr inbounds nuw %struct._lv_draw_sw_blend_dsc_t, ptr %11, i32 0, i32 10
  store i32 %90, ptr %91, align 8, !tbaa !58
  %92 = load ptr, ptr %6, align 8, !tbaa !37
  %93 = getelementptr inbounds nuw %struct._lv_draw_glyph_dsc_t, ptr %92, i32 0, i32 2
  %94 = load ptr, ptr %93, align 8, !tbaa !45
  %95 = getelementptr inbounds nuw %struct._lv_draw_sw_blend_dsc_t, ptr %11, i32 0, i32 0
  store ptr %94, ptr %95, align 8, !tbaa !59
  %96 = getelementptr inbounds nuw %struct._lv_draw_sw_blend_dsc_t, ptr %11, i32 0, i32 8
  store i32 2, ptr %96, align 8, !tbaa !60
  %97 = load ptr, ptr %5, align 8, !tbaa !3
  call void @lv_draw_sw_blend(ptr noundef %97, ptr noundef %11)
  call void @llvm.lifetime.end.p0(i64 8, ptr %12) #5
  call void @llvm.lifetime.end.p0(i64 72, ptr %11) #5
  call void @llvm.lifetime.end.p0(i64 16, ptr %10) #5
  br label %149

98:                                               ; preds = %46, %40
  %99 = load ptr, ptr %6, align 8, !tbaa !37
  %100 = getelementptr inbounds nuw %struct._lv_draw_glyph_dsc_t, ptr %99, i32 0, i32 4
  %101 = load ptr, ptr %100, align 8, !tbaa !43
  %102 = load ptr, ptr %6, align 8, !tbaa !37
  %103 = getelementptr inbounds nuw %struct._lv_draw_glyph_dsc_t, ptr %102, i32 0, i32 9
  %104 = load ptr, ptr %103, align 8, !tbaa !36
  %105 = call ptr @lv_font_get_glyph_bitmap(ptr noundef %101, ptr noundef %104)
  %106 = load ptr, ptr %6, align 8, !tbaa !37
  %107 = getelementptr inbounds nuw %struct._lv_draw_glyph_dsc_t, ptr %106, i32 0, i32 0
  store ptr %105, ptr %107, align 8, !tbaa !44
  call void @llvm.lifetime.start.p0(i64 144, ptr %13) #5
  call void @lv_draw_image_dsc_init(ptr noundef %13)
  %108 = load ptr, ptr %6, align 8, !tbaa !37
  %109 = getelementptr inbounds nuw %struct._lv_draw_glyph_dsc_t, ptr %108, i32 0, i32 7
  %110 = load i32, ptr %109, align 4, !tbaa !26
  %111 = getelementptr inbounds nuw %struct._lv_draw_image_dsc_t, ptr %13, i32 0, i32 3
  store i32 %110, ptr %111, align 4, !tbaa !61
  %112 = getelementptr inbounds nuw %struct._lv_draw_image_dsc_t, ptr %13, i32 0, i32 4
  store i32 256, ptr %112, align 8, !tbaa !65
  %113 = getelementptr inbounds nuw %struct._lv_draw_image_dsc_t, ptr %13, i32 0, i32 5
  store i32 256, ptr %113, align 4, !tbaa !66
  %114 = load ptr, ptr %6, align 8, !tbaa !37
  %115 = getelementptr inbounds nuw %struct._lv_draw_glyph_dsc_t, ptr %114, i32 0, i32 6
  %116 = load i8, ptr %115, align 1, !tbaa !19
  %117 = getelementptr inbounds nuw %struct._lv_draw_image_dsc_t, ptr %13, i32 0, i32 11
  store i8 %116, ptr %117, align 4, !tbaa !67
  %118 = load ptr, ptr %6, align 8, !tbaa !37
  %119 = getelementptr inbounds nuw %struct._lv_draw_glyph_dsc_t, ptr %118, i32 0, i32 0
  %120 = load ptr, ptr %119, align 8, !tbaa !44
  %121 = getelementptr inbounds nuw %struct._lv_draw_image_dsc_t, ptr %13, i32 0, i32 1
  store ptr %120, ptr %121, align 8, !tbaa !68
  %122 = getelementptr inbounds nuw %struct._lv_draw_image_dsc_t, ptr %13, i32 0, i32 9
  %123 = load ptr, ptr %6, align 8, !tbaa !37
  %124 = getelementptr inbounds nuw %struct._lv_draw_glyph_dsc_t, ptr %123, i32 0, i32 5
  call void @llvm.memcpy.p0.p0.i64(ptr align 8 %122, ptr align 8 %124, i64 3, i1 false), !tbaa.struct !23
  %125 = getelementptr inbounds nuw %struct._lv_draw_image_dsc_t, ptr %13, i32 0, i32 8
  %126 = getelementptr inbounds nuw %struct.lv_point_t, ptr %14, i32 0, i32 0
  %127 = load ptr, ptr %6, align 8, !tbaa !37
  %128 = getelementptr inbounds nuw %struct._lv_draw_glyph_dsc_t, ptr %127, i32 0, i32 8
  %129 = getelementptr inbounds nuw %struct.lv_point_t, ptr %128, i32 0, i32 0
  %130 = load i32, ptr %129, align 8, !tbaa !69
  store i32 %130, ptr %126, align 4, !tbaa !31
  %131 = getelementptr inbounds nuw %struct.lv_point_t, ptr %14, i32 0, i32 1
  %132 = load ptr, ptr %6, align 8, !tbaa !37
  %133 = getelementptr inbounds nuw %struct._lv_draw_glyph_dsc_t, ptr %132, i32 0, i32 4
  %134 = load ptr, ptr %133, align 8, !tbaa !43
  %135 = getelementptr inbounds nuw %struct.lv_font_glyph_dsc_t, ptr %134, i32 0, i32 3
  %136 = load i16, ptr %135, align 4, !tbaa !70
  %137 = zext i16 %136 to i32
  %138 = load ptr, ptr %6, align 8, !tbaa !37
  %139 = getelementptr inbounds nuw %struct._lv_draw_glyph_dsc_t, ptr %138, i32 0, i32 4
  %140 = load ptr, ptr %139, align 8, !tbaa !43
  %141 = getelementptr inbounds nuw %struct.lv_font_glyph_dsc_t, ptr %140, i32 0, i32 5
  %142 = load i16, ptr %141, align 8, !tbaa !73
  %143 = sext i16 %142 to i32
  %144 = add nsw i32 %137, %143
  store i32 %144, ptr %131, align 4, !tbaa !33
  call void @llvm.memcpy.p0.p0.i64(ptr align 8 %125, ptr align 4 %14, i64 8, i1 false), !tbaa.struct !27
  %145 = load ptr, ptr %5, align 8, !tbaa !3
  %146 = load ptr, ptr %6, align 8, !tbaa !37
  %147 = getelementptr inbounds nuw %struct._lv_draw_glyph_dsc_t, ptr %146, i32 0, i32 2
  %148 = load ptr, ptr %147, align 8, !tbaa !45
  call void @lv_draw_sw_image(ptr noundef %145, ptr noundef %13, ptr noundef %148)
  call void @llvm.lifetime.end.p0(i64 144, ptr %13) #5
  br label %149

149:                                              ; preds = %98, %51
  br label %151

150:                                              ; preds = %17
  br label %151

151:                                              ; preds = %150, %149, %27, %26
  br label %152

152:                                              ; preds = %151, %4
  %153 = load ptr, ptr %7, align 8, !tbaa !8
  %154 = icmp ne ptr %153, null
  br i1 %154, label %155, label %162

155:                                              ; preds = %152
  %156 = load ptr, ptr %8, align 8, !tbaa !8
  %157 = icmp ne ptr %156, null
  br i1 %157, label %158, label %162

158:                                              ; preds = %155
  %159 = load ptr, ptr %5, align 8, !tbaa !3
  %160 = load ptr, ptr %7, align 8, !tbaa !8
  %161 = load ptr, ptr %8, align 8, !tbaa !8
  call void @lv_draw_sw_fill(ptr noundef %159, ptr noundef %160, ptr noundef %161)
  br label %162

162:                                              ; preds = %158, %155, %152
  ret void
}