; Function Attrs: nounwind uwtable
define internal void @draw_letter_cb(ptr noundef %0, ptr noundef captures(address_is_null) %1, ptr noundef %2, ptr noundef %3) #0 {
  %5 = alloca %struct.lv_draw_border_dsc_t, align 8
  %6 = alloca %struct.lv_area_t, align 4
  %7 = alloca %struct._lv_draw_sw_blend_dsc_t, align 8
  %8 = alloca %struct._lv_draw_image_dsc_t, align 8
  %.not = icmp eq ptr %1, null
  br i1 %.not, label %84, label %9

9:                                                ; preds = %4
  %10 = getelementptr inbounds nuw i8, ptr %1, i64 8
  %11 = load i32, ptr %10, align 8, !tbaa !32
  switch i32 %11, label %84 [
    i32 0, label %12
    i32 1, label %24
    i32 2, label %24
    i32 3, label %24
    i32 4, label %24
    i32 8, label %24
    i32 17, label %24
    i32 18, label %24
    i32 20, label %24
    i32 24, label %24
    i32 25, label %24
  ]

12:                                               ; preds = %9
  %13 = getelementptr inbounds nuw i8, ptr %1, i64 24
  %14 = load ptr, ptr %13, align 8, !tbaa !19
  %15 = icmp eq ptr %14, null
  br i1 %15, label %84, label %16

16:                                               ; preds = %12
  call void @llvm.lifetime.start.p0(i64 64, ptr nonnull %5) #4
  call void @lv_draw_border_dsc_init(ptr noundef nonnull %5) #4
  %17 = getelementptr inbounds nuw i8, ptr %1, i64 43
  %18 = load i8, ptr %17, align 1, !tbaa !16
  %19 = getelementptr inbounds nuw i8, ptr %5, i64 60
  store i8 %18, ptr %19, align 4, !tbaa !33
  %20 = getelementptr inbounds nuw i8, ptr %5, i64 52
  %21 = getelementptr inbounds nuw i8, ptr %1, i64 40
  call void @llvm.memcpy.p0.p0.i64(ptr noundef nonnull align 4 dereferenceable(3) %20, ptr noundef nonnull align 8 dereferenceable(3) %21, i64 3, i1 false), !tbaa.struct !20
  %22 = getelementptr inbounds nuw i8, ptr %5, i64 56
  store i32 1, ptr %22, align 8, !tbaa !35
  %23 = load ptr, ptr %13, align 8, !tbaa !19
  call void @lv_draw_sw_border(ptr noundef %0, ptr noundef nonnull %5, ptr noundef %23) #4
  call void @llvm.lifetime.end.p0(i64 64, ptr nonnull %5) #4
  br label %84

24:                                               ; preds = %9, %9, %9, %9, %9, %9, %9, %9, %9, %9
  %25 = getelementptr inbounds nuw i8, ptr %1, i64 44
  %26 = load i32, ptr %25, align 4, !tbaa !23
  %27 = srem i32 %26, 3600
  %28 = icmp ne i32 %27, 0
  %.not40 = icmp eq i32 %11, 25
  %or.cond41 = or i1 %.not40, %28
  %29 = getelementptr inbounds nuw i8, ptr %1, i64 32
  %30 = load ptr, ptr %29, align 8, !tbaa !36
  %31 = getelementptr inbounds nuw i8, ptr %1, i64 56
  %32 = load ptr, ptr %31, align 8, !tbaa !31
  %33 = tail call ptr @lv_font_get_glyph_bitmap(ptr noundef %30, ptr noundef %32) #4
  store ptr %33, ptr %1, align 8, !tbaa !37
  br i1 %or.cond41, label %59, label %34

34:                                               ; preds = %24
  call void @llvm.lifetime.start.p0(i64 16, ptr nonnull %6) #4
  %35 = getelementptr inbounds nuw i8, ptr %1, i64 16
  %36 = load ptr, ptr %35, align 8, !tbaa !38
  call void @llvm.memcpy.p0.p0.i64(ptr noundef nonnull align 4 dereferenceable(16) %6, ptr noundef nonnull align 4 dereferenceable(16) %36, i64 16, i1 false), !tbaa.struct !39
  %37 = load i32, ptr %6, align 4, !tbaa !24
  %38 = call i32 @lv_area_get_width(ptr noundef nonnull %6) #4
  %39 = call i32 @lv_draw_buf_width_to_stride(i32 noundef %38, i32 noundef 14) #4
  %40 = add i32 %37, -1
  %41 = add i32 %40, %39
  %42 = getelementptr inbounds nuw i8, ptr %6, i64 8
  store i32 %41, ptr %42, align 4, !tbaa !41
  call void @llvm.lifetime.start.p0(i64 72, ptr nonnull %7) #4
  call void @lv_memset(ptr noundef nonnull %7, i8 noundef zeroext 0, i64 noundef 72) #4
  %43 = getelementptr inbounds nuw i8, ptr %7, i64 33
  %44 = getelementptr inbounds nuw i8, ptr %1, i64 40
  call void @llvm.memcpy.p0.p0.i64(ptr noundef nonnull align 1 dereferenceable(3) %43, ptr noundef nonnull align 8 dereferenceable(3) %44, i64 3, i1 false), !tbaa.struct !20
  %45 = getelementptr inbounds nuw i8, ptr %1, i64 43
  %46 = load i8, ptr %45, align 1, !tbaa !16
  %47 = getelementptr inbounds nuw i8, ptr %7, i64 32
  store i8 %46, ptr %47, align 8, !tbaa !42
  %48 = load ptr, ptr %1, align 8, !tbaa !37
  %49 = getelementptr inbounds nuw i8, ptr %48, i64 16
  %50 = load ptr, ptr %49, align 8, !tbaa !45
  %51 = getelementptr inbounds nuw i8, ptr %7, i64 40
  store ptr %50, ptr %51, align 8, !tbaa !49
  %52 = getelementptr inbounds nuw i8, ptr %7, i64 56
  store ptr %6, ptr %52, align 8, !tbaa !50
  %53 = getelementptr inbounds nuw i8, ptr %48, i64 8
  %54 = load i32, ptr %53, align 8
  %55 = and i32 %54, 65535
  %56 = getelementptr inbounds nuw i8, ptr %7, i64 64
  store i32 %55, ptr %56, align 8, !tbaa !51
  %57 = load ptr, ptr %35, align 8, !tbaa !38
  store ptr %57, ptr %7, align 8, !tbaa !52
  %58 = getelementptr inbounds nuw i8, ptr %7, i64 48
  store i32 2, ptr %58, align 8, !tbaa !53
  call void @lv_draw_sw_blend(ptr noundef %0, ptr noundef nonnull %7) #4
  call void @llvm.lifetime.end.p0(i64 72, ptr nonnull %7) #4
  call void @llvm.lifetime.end.p0(i64 16, ptr nonnull %6) #4
  br label %84

59:                                               ; preds = %24
  call void @llvm.lifetime.start.p0(i64 144, ptr nonnull %8) #4
  call void @lv_draw_image_dsc_init(ptr noundef nonnull %8) #4
  %60 = load i32, ptr %25, align 4, !tbaa !23
  %61 = getelementptr inbounds nuw i8, ptr %8, i64 68
  store i32 %60, ptr %61, align 4, !tbaa !54
  %62 = getelementptr inbounds nuw i8, ptr %8, i64 72
  store i32 256, ptr %62, align 8, !tbaa !58
  %63 = getelementptr inbounds nuw i8, ptr %8, i64 76
  store i32 256, ptr %63, align 4, !tbaa !59
  %64 = getelementptr inbounds nuw i8, ptr %1, i64 43
  %65 = load i8, ptr %64, align 1, !tbaa !16
  %66 = getelementptr inbounds nuw i8, ptr %8, i64 100
  store i8 %65, ptr %66, align 4, !tbaa !60
  %67 = load ptr, ptr %1, align 8, !tbaa !37
  %68 = getelementptr inbounds nuw i8, ptr %8, i64 48
  store ptr %67, ptr %68, align 8, !tbaa !61
  %69 = getelementptr inbounds nuw i8, ptr %8, i64 96
  %70 = getelementptr inbounds nuw i8, ptr %1, i64 40
  call void @llvm.memcpy.p0.p0.i64(ptr noundef nonnull align 8 dereferenceable(3) %69, ptr noundef nonnull align 8 dereferenceable(3) %70, i64 3, i1 false), !tbaa.struct !20
  %71 = getelementptr inbounds nuw i8, ptr %8, i64 88
  %72 = getelementptr inbounds nuw i8, ptr %1, i64 48
  %73 = load i32, ptr %72, align 8, !tbaa !62
  %74 = load ptr, ptr %29, align 8, !tbaa !36
  %75 = getelementptr inbounds nuw i8, ptr %74, i64 12
  %76 = load i16, ptr %75, align 4, !tbaa !63
  %77 = zext i16 %76 to i32
  %78 = getelementptr inbounds nuw i8, ptr %74, i64 16
  %79 = load i16, ptr %78, align 8, !tbaa !66
  %80 = sext i16 %79 to i32
  %81 = add nsw i32 %80, %77
  store i32 %73, ptr %71, align 8, !tbaa !40
  %.sroa.2.0..sroa_idx = getelementptr inbounds nuw i8, ptr %8, i64 92
  store i32 %81, ptr %.sroa.2.0..sroa_idx, align 4, !tbaa !40
  %82 = getelementptr inbounds nuw i8, ptr %1, i64 16
  %83 = load ptr, ptr %82, align 8, !tbaa !38
  call void @lv_draw_sw_image(ptr noundef %0, ptr noundef nonnull %8, ptr noundef %83) #4
  call void @llvm.lifetime.end.p0(i64 144, ptr nonnull %8) #4
  br label %84

84:                                               ; preds = %16, %12, %59, %34, %9, %4
  %85 = icmp ne ptr %2, null
  %86 = icmp ne ptr %3, null
  %or.cond = and i1 %85, %86
  br i1 %or.cond, label %87, label %88

87:                                               ; preds = %84
  call void @lv_draw_sw_fill(ptr noundef %0, ptr noundef nonnull %2, ptr noundef nonnull %3) #4
  br label %88

88:                                               ; preds = %87, %84
  ret void
}